target datalayout = "e-m:e-p270:32:32-p271:32:32-p272:64:64-i64:64-i128:128-f80:128-n8:16:32:64-S128"
target triple = "x86_64-pc-linux-gnu"

@H5_libinit_g = external global i8, align 1
@H5_libterm_g = external global i8, align 1
@.str = private unnamed_addr constant [97 x i8] c"generated/home/dtcxzyw/WorkSpace/Projects/compilers/llvm-opt-benchmark/bench/hdf5/hdf5/src/H5O.c\00", align 1
@H5E_FUNC_g = external global i64, align 8
@H5E_CANTINIT_g = external global i64, align 8
@.str.1 = private unnamed_addr constant [30 x i8] c"library initialization failed\00", align 1
@H5E_CANTSET_g = external global i64, align 8
@.str.2 = private unnamed_addr constant [22 x i8] c"can't set API context\00", align 1
@H5E_OHDR_g = external global i64, align 8
@__func__.H5Ocopy = private unnamed_addr constant [8 x i8] c"H5Ocopy\00", align 1
@H5E_CANTCOPY_g = external global i64, align 8
@.str.24 = private unnamed_addr constant [36 x i8] c"unable to synchronously copy object\00", align 1

; Function Attrs: nounwind uwtable
define i32 @H5Ocopy(i64 noundef %0, ptr noundef %1, i64 noundef %2, ptr noundef %3, i64 noundef %4, i64 noundef %5) #0 {
  %7 = alloca i64, align 8
  %8 = alloca ptr, align 8
  %9 = alloca i64, align 8
  %10 = alloca ptr, align 8
  %11 = alloca i64, align 8
  %12 = alloca i64, align 8
  %13 = alloca i32, align 4
  %14 = alloca i8, align 1
  %15 = alloca i8, align 1
  store i64 %0, ptr %7, align 8
  store ptr %1, ptr %8, align 8
  store i64 %2, ptr %9, align 8
  store ptr %3, ptr %10, align 8
  store i64 %4, ptr %11, align 8
  store i64 %5, ptr %12, align 8
  store i32 0, ptr %13, align 4
  store i8 0, ptr %14, align 1
  store i8 0, ptr %15, align 1
  %16 = load i8, ptr @H5_libinit_g, align 1
  %17 = trunc i8 %16 to i1
  br i1 %17, label %22, label %18

18:                                               ; preds = %6
  %19 = load i8, ptr @H5_libterm_g, align 1
  %20 = trunc i8 %19 to i1
  %21 = xor i1 %20, true
  br label %22

22:                                               ; preds = %18, %6
  %23 = phi i1 [ false, %6 ], [ %21, %18 ]
  %24 = xor i1 %23, true
  %25 = xor i1 %24, true
  %26 = zext i1 %25 to i32
  %27 = sext i32 %26 to i64
  %28 = icmp ne i64 %27, 0
  br i1 %28, label %29, label %53

29:                                               ; preds = %22
  %30 = call i32 @H5_init_library()
  %31 = icmp slt i32 %30, 0
  %32 = xor i1 %31, true
  %33 = xor i1 %32, true
  %34 = zext i1 %33 to i32
  %35 = sext i32 %34 to i64
  %36 = icmp ne i64 %35, 0
  br i1 %36, label %37, label %52

37:                                               ; preds = %29
  br label %38

38:                                               ; preds = %37
  br label %39

39:                                               ; preds = %38
  br label %40

40:                                               ; preds = %39
  %41 = load i64, ptr @H5E_FUNC_g, align 8
  %42 = load i64, ptr @H5E_CANTINIT_g, align 8
  %43 = call i32 (ptr, ptr, i32, i64, i64, ptr, ...) @H5E_printf_stack(ptr noundef @.str, ptr noundef @__func__.H5Ocopy, i32 noundef 533, i64 noundef %41, i64 noundef %42, ptr noundef @.str.1)
  br label %44

44:                                               ; preds = %40
  store i8 1, ptr %15, align 1
  %45 = load i8, ptr %15, align 1
  %46 = trunc i8 %45 to i1
  %47 = zext i1 %46 to i8
  store i8 %47, ptr %15, align 1
  br label %48

48:                                               ; preds = %44
  br label %49

49:                                               ; preds = %48
  store i32 -1, ptr %13, align 4
  br label %103

50:                                               ; No predecessors!
  br label %51

51:                                               ; preds = %50
  br label %52

52:                                               ; preds = %51, %29
  br label %53

53:                                               ; preds = %52, %22
  %54 = call i32 @H5CX_push()
  %55 = icmp slt i32 %54, 0
  %56 = xor i1 %55, true
  %57 = xor i1 %56, true
  %58 = zext i1 %57 to i32
  %59 = sext i32 %58 to i64
  %60 = icmp ne i64 %59, 0
  br i1 %60, label %61, label %76

61:                                               ; preds = %53
  br label %62

62:                                               ; preds = %61
  br label %63

63:                                               ; preds = %62
  br label %64

64:                                               ; preds = %63
  %65 = load i64, ptr @H5E_FUNC_g, align 8
  %66 = load i64, ptr @H5E_CANTSET_g, align 8
  %67 = call i32 (ptr, ptr, i32, i64, i64, ptr, ...) @H5E_printf_stack(ptr noundef @.str, ptr noundef @__func__.H5Ocopy, i32 noundef 533, i64 noundef %65, i64 noundef %66, ptr noundef @.str.2)
  br label %68

68:                                               ; preds = %64
  store i8 1, ptr %15, align 1
  %69 = load i8, ptr %15, align 1
  %70 = trunc i8 %69 to i1
  %71 = zext i1 %70 to i8
  store i8 %71, ptr %15, align 1
  br label %72

72:                                               ; preds = %68
  br label %73

73:                                               ; preds = %72
  store i32 -1, ptr %13, align 4
  br label %103

74:                                               ; No predecessors!
  br label %75

75:                                               ; preds = %74
  br label %77

76:                                               ; preds = %53
  store i8 1, ptr %14, align 1
  br label %77

77:                                               ; preds = %76, %75
  %78 = call i32 @H5E_clear_stack()
  %79 = load i64, ptr %7, align 8
  %80 = load ptr, ptr %8, align 8
  %81 = load i64, ptr %9, align 8
  %82 = load ptr, ptr %10, align 8
  %83 = load i64, ptr %11, align 8
  %84 = load i64, ptr %12, align 8
  %85 = call i32 @H5O__copy_api_common(i64 noundef %79, ptr noundef %80, i64 noundef %81, ptr noundef %82, i64 noundef %83, i64 noundef %84, ptr noundef null, ptr noundef null)
  %86 = icmp slt i32 %85, 0
  br i1 %86, label %87, label %102

87:                                               ; preds = %77
  br label %88

88:                                               ; preds = %87
  br label %89

89:                                               ; preds = %88
  br label %90

90:                                               ; preds = %89
  %91 = load i64, ptr @H5E_OHDR_g, align 8
  %92 = load i64, ptr @H5E_CANTCOPY_g, align 8
  %93 = call i32 (ptr, ptr, i32, i64, i64, ptr, ...) @H5E_printf_stack(ptr noundef @.str, ptr noundef @__func__.H5Ocopy, i32 noundef 537, i64 noundef %91, i64 noundef %92, ptr noundef @.str.24)
  br label %94

94:                                               ; preds = %90
  store i8 1, ptr %15, align 1
  %95 = load i8, ptr %15, align 1
  %96 = trunc i8 %95 to i1
  %97 = zext i1 %96 to i8
  store i8 %97, ptr %15, align 1
  br label %98

98:                                               ; preds = %94
  br label %99

99:                                               ; preds = %98
  store i32 -1, ptr %13, align 4
  br label %103

100:                                              ; No predecessors!
  br label %101

101:                                              ; preds = %100
  br label %102

102:                                              ; preds = %101, %77
  br label %103

103:                                              ; preds = %102, %99, %73, %49
  %104 = load i8, ptr %14, align 1
  %105 = trunc i8 %104 to i1
  %106 = xor i1 %105, true
  %107 = xor i1 %106, true
  %108 = zext i1 %107 to i32
  %109 = sext i32 %108 to i64
  %110 = icmp ne i64 %109, 0
  br i1 %110, label %111, label %113

111:                                              ; preds = %103
  %112 = call i32 @H5CX_pop(i1 noundef zeroext true)
  store i8 0, ptr %14, align 1
  br label %113

113:                                              ; preds = %111, %103
  %114 = load i8, ptr %15, align 1
  %115 = trunc i8 %114 to i1
  %116 = xor i1 %115, true
  %117 = xor i1 %116, true
  %118 = zext i1 %117 to i32
  %119 = sext i32 %118 to i64
  %120 = icmp ne i64 %119, 0
  br i1 %120, label %121, label %123

121:                                              ; preds = %113
  %122 = call i32 @H5E_dump_api_stack()
  br label %123

123:                                              ; preds = %121, %113
  %124 = load i32, ptr %13, align 4
  ret i32 %124
}