; Function Attrs: nounwind uwtable
define range(i32 -1, 1) i32 @H5Ocopy(i64 noundef %0, ptr noundef %1, i64 noundef %2, ptr noundef %3, i64 noundef %4, i64 noundef %5) local_unnamed_addr #0 {
  %7 = load i8, ptr @H5_libinit_g, align 1
  %8 = trunc i8 %7 to i1
  %9 = load i8, ptr @H5_libterm_g, align 1
  %10 = trunc i8 %9 to i1
  %11 = select i1 %8, i1 true, i1 %10
  br i1 %11, label %19, label %12

12:                                               ; preds = %6
  %13 = tail call i32 @H5_init_library() #4
  %14 = icmp slt i32 %13, 0
  br i1 %14, label %15, label %19

15:                                               ; preds = %12
  %16 = load i64, ptr @H5E_FUNC_g, align 8
  %17 = load i64, ptr @H5E_CANTINIT_g, align 8
  %18 = tail call i32 (ptr, ptr, i32, i64, i64, ptr, ...) @H5E_printf_stack(ptr noundef nonnull @.str, ptr noundef nonnull @__func__.H5Ocopy, i32 noundef 533, i64 noundef %16, i64 noundef %17, ptr noundef nonnull @.str.1) #4
  br label %.thread21

19:                                               ; preds = %12, %6
  %20 = tail call i32 @H5CX_push() #4
  %21 = icmp slt i32 %20, 0
  br i1 %21, label %22, label %26

22:                                               ; preds = %19
  %23 = load i64, ptr @H5E_FUNC_g, align 8
  %24 = load i64, ptr @H5E_CANTSET_g, align 8
  %25 = tail call i32 (ptr, ptr, i32, i64, i64, ptr, ...) @H5E_printf_stack(ptr noundef nonnull @.str, ptr noundef nonnull @__func__.H5Ocopy, i32 noundef 533, i64 noundef %23, i64 noundef %24, ptr noundef nonnull @.str.2) #4
  br label %.thread21

26:                                               ; preds = %19
  %27 = tail call i32 @H5E_clear_stack() #4
  %28 = tail call fastcc i32 @H5O__copy_api_common(i64 noundef %0, ptr noundef %1, i64 noundef %2, ptr noundef %3, i64 noundef %4, i64 noundef %5, ptr noundef null, ptr noundef null)
  %29 = icmp slt i32 %28, 0
  br i1 %29, label %.thread26, label %34

.thread26:                                        ; preds = %26
  %30 = load i64, ptr @H5E_OHDR_g, align 8
  %31 = load i64, ptr @H5E_CANTCOPY_g, align 8
  %32 = tail call i32 (ptr, ptr, i32, i64, i64, ptr, ...) @H5E_printf_stack(ptr noundef nonnull @.str, ptr noundef nonnull @__func__.H5Ocopy, i32 noundef 537, i64 noundef %30, i64 noundef %31, ptr noundef nonnull @.str.24) #4
  %33 = tail call i32 @H5CX_pop(i1 noundef zeroext true) #4
  br label %.thread21

34:                                               ; preds = %26
  %35 = tail call i32 @H5CX_pop(i1 noundef zeroext true) #4
  br label %37

.thread21:                                        ; preds = %22, %15, %.thread26
  %36 = tail call i32 @H5E_dump_api_stack() #4
  br label %37

37:                                               ; preds = %34, %.thread21
  %.0121624 = phi i32 [ -1, %.thread21 ], [ 0, %34 ]
  ret i32 %.0121624
}